target datalayout = "e-m:e-p270:32:32-p271:32:32-p272:64:64-i64:64-i128:128-f80:128-n8:16:32:64-S128"
target triple = "x86_64-pc-linux-gnu"

%struct.UConverter = type { ptr, ptr, ptr, ptr, ptr, ptr, ptr, i32, i8, i8, i8, i8, i8, [7 x i8], i32, i32, i32, i32, i8, i8, i8, i8, i8, i8, i8, i8, [8 x i8], [32 x i8], [2 x i16], [2 x i16], [32 x i16], i32, [19 x i16], [31 x i8], i8, i8, i8, i32 }

; Function Attrs: mustprogress nounwind uwtable
define internal void @_ZL10_UTF7ResetP10UConverter21UConverterResetChoice(ptr noundef %0, i32 noundef %1) #1 {
  %3 = alloca ptr, align 8
  %4 = alloca i32, align 4
  store ptr %0, ptr %3, align 8, !tbaa !3
  store i32 %1, ptr %4, align 4, !tbaa !18
  %5 = load i32, ptr %4, align 4, !tbaa !18
  %6 = icmp sle i32 %5, 1
  br i1 %6, label %7, label %12

7:                                                ; preds = %2
  %8 = load ptr, ptr %3, align 8, !tbaa !3
  %9 = getelementptr inbounds nuw %struct.UConverter, ptr %8, i32 0, i32 14
  store i32 16777216, ptr %9, align 8, !tbaa !20
  %10 = load ptr, ptr %3, align 8, !tbaa !3
  %11 = getelementptr inbounds nuw %struct.UConverter, ptr %10, i32 0, i32 12
  store i8 0, ptr %11, align 8, !tbaa !21
  br label %12

12:                                               ; preds = %7, %2
  %13 = load i32, ptr %4, align 4, !tbaa !18
  %14 = icmp ne i32 %13, 1
  br i1 %14, label %15, label %23

15:                                               ; preds = %12
  %16 = load ptr, ptr %3, align 8, !tbaa !3
  %17 = getelementptr inbounds nuw %struct.UConverter, ptr %16, i32 0, i32 16
  %18 = load i32, ptr %17, align 8, !tbaa !15
  %19 = and i32 %18, -268435456
  %20 = or i32 %19, 16777216
  %21 = load ptr, ptr %3, align 8, !tbaa !3
  %22 = getelementptr inbounds nuw %struct.UConverter, ptr %21, i32 0, i32 16
  store i32 %20, ptr %22, align 8, !tbaa !15
  br label %23

23:                                               ; preds = %15, %12
  ret void
}

; Function Attrs: mustprogress uwtable
define internal void @_ZL9_UTF7OpenP10UConverterP18UConverterLoadArgsP10UErrorCode(ptr noundef %0, ptr noundef %1, ptr noundef %2) #0 {
  %4 = alloca ptr, align 8
  %5 = alloca ptr, align 8
  %6 = alloca ptr, align 8
  store ptr %0, ptr %4, align 8, !tbaa !3
  store ptr %1, ptr %5, align 8, !tbaa !8
  store ptr %2, ptr %6, align 8, !tbaa !8
  %7 = load ptr, ptr %4, align 8, !tbaa !3
  %8 = getelementptr inbounds nuw %struct.UConverter, ptr %7, i32 0, i32 7
  %9 = load i32, ptr %8, align 8, !tbaa !9
  %10 = and i32 %9, 15
  %11 = icmp ule i32 %10, 1
  br i1 %11, label %12, label %21

12:                                               ; preds = %3
  %13 = load ptr, ptr %4, align 8, !tbaa !3
  %14 = getelementptr inbounds nuw %struct.UConverter, ptr %13, i32 0, i32 7
  %15 = load i32, ptr %14, align 8, !tbaa !9
  %16 = and i32 %15, 15
  %17 = shl i32 %16, 28
  %18 = load ptr, ptr %4, align 8, !tbaa !3
  %19 = getelementptr inbounds nuw %struct.UConverter, ptr %18, i32 0, i32 16
  store i32 %17, ptr %19, align 8, !tbaa !15
  %20 = load ptr, ptr %4, align 8, !tbaa !3
  call void @_ZL10_UTF7ResetP10UConverter21UConverterResetChoice(ptr noundef %20, i32 noundef 0)
  br label %23

21:                                               ; preds = %3
  %22 = load ptr, ptr %6, align 8, !tbaa !8
  store i32 1, ptr %22, align 4, !tbaa !16
  br label %23

23:                                               ; preds = %21, %12
  ret void
}