; Function Attrs: mustprogress nofree norecurse nosync nounwind willreturn memory(argmem: readwrite) uwtable
define internal void @_ZL9_UTF7OpenP10UConverterP18UConverterLoadArgsP10UErrorCode(ptr noundef captures(none) %0, ptr readnone captures(none) %1, ptr noundef writeonly captures(none) %2) #0 {
  %4 = getelementptr inbounds nuw i8, ptr %0, i64 56
  %5 = load i32, ptr %4, align 8, !tbaa !3
  %6 = and i32 %5, 15
  %7 = icmp samesign ult i32 %6, 2
  br i1 %7, label %8, label %14

8:                                                ; preds = %3
  %9 = shl nuw nsw i32 %6, 28
  %10 = getelementptr inbounds nuw i8, ptr %0, i64 80
  %11 = getelementptr inbounds nuw i8, ptr %0, i64 72
  store i32 16777216, ptr %11, align 8, !tbaa !12
  %12 = getelementptr inbounds nuw i8, ptr %0, i64 64
  store i8 0, ptr %12, align 8, !tbaa !13
  %13 = or disjoint i32 %9, 16777216
  store i32 %13, ptr %10, align 8, !tbaa !14
  br label %15

14:                                               ; preds = %3
  store i32 1, ptr %2, align 4, !tbaa !15
  br label %15

15:                                               ; preds = %14, %8
  ret void
}